target datalayout = "e-m:e-p270:32:32-p271:32:32-p272:64:64-i64:64-i128:128-f80:128-n8:16:32:64-S128"
target triple = "x86_64-pc-linux-gnu"

%class.QPointF = type { double, double }
%class.WirelessTimeline = type { %class.QWidget, double, double, double, ptr, [64 x [3 x float]], i64, i64, i32, ptr, ptr, ptr, ptr }
%class.QWidget = type { %class.QObject, %class.QPaintDevice.base, ptr }
%class.QObject = type { ptr, %class.QScopedPointer }
%class.QScopedPointer = type { ptr }
%class.QPaintDevice.base = type <{ ptr, i16 }>
%class.QPointerEvent = type { %class.QInputEvent, %class.QList }
%class.QInputEvent = type { %class.QEvent, ptr, i64, %class.QFlags, i32 }
%class.QEvent = type { ptr, i16, i8, i8, i8, i8, i16 }
%class.QFlags = type { i32 }
%class.QList = type { %struct.QArrayDataPointer }
%struct.QArrayDataPointer = type { ptr, ptr, i64 }
%class.QFlags.0 = type { i32 }
%class.QSinglePointEvent = type { %class.QPointerEvent, i32, %class.QFlags.0, i32, i16, i16 }
%class.QWidgetData = type { i64, i32, %class.QFlags.17, i32, %class.QRect, [4 x i8], %class.QPalette, %class.QFont, %class.QRect }
%class.QFlags.17 = type { i32 }
%class.QPalette = type <{ ptr, i32, [4 x i8] }>
%class.QFont = type <{ %class.QExplicitlySharedDataPointer, i32, [4 x i8] }>
%class.QExplicitlySharedDataPointer = type { ptr }
%class.QRect = type { i32, i32, i32, i32 }
%struct.wlan_radio = type { ptr, i32, i64, i64, i64, i16, i8 }
%"class.QList<QEventPoint>::const_iterator" = type { ptr }

; Function Attrs: mustprogress nounwind uwtable
define linkonce_odr noundef ptr @_ZNK17QArrayDataPointerI11QEventPointE4dataEv(ptr noundef nonnull align 8 dereferenceable(24) %0) #1 comdat align 2 {
  %2 = alloca ptr, align 8
  store ptr %0, ptr %2, align 8
  %3 = load ptr, ptr %2, align 8
  %4 = getelementptr inbounds %struct.QArrayDataPointer, ptr %3, i32 0, i32 1
  %5 = load ptr, ptr %4, align 8
  ret ptr %5
}

; Function Attrs: mustprogress nounwind uwtable
define linkonce_odr void @_ZN5QListI11QEventPointE14const_iteratorC2EPKS0_(ptr noundef nonnull align 8 dereferenceable(8) %0, ptr noundef %1) unnamed_addr #1 comdat align 2 {
  %3 = alloca ptr, align 8
  %4 = alloca ptr, align 8
  store ptr %0, ptr %3, align 8
  store ptr %1, ptr %4, align 8
  %5 = load ptr, ptr %3, align 8
  %6 = getelementptr inbounds %"class.QList<QEventPoint>::const_iterator", ptr %5, i32 0, i32 0
  %7 = load ptr, ptr %4, align 8
  store ptr %7, ptr %6, align 8
  ret void
}

; Function Attrs: mustprogress nounwind uwtable
define linkonce_odr noundef ptr @_ZNK17QArrayDataPointerI11QEventPointE10constBeginEv(ptr noundef nonnull align 8 dereferenceable(24) %0) #1 comdat align 2 {
  %2 = alloca ptr, align 8
  store ptr %0, ptr %2, align 8
  %3 = load ptr, ptr %2, align 8
  %4 = call noundef ptr @_ZNK17QArrayDataPointerI11QEventPointE4dataEv(ptr noundef nonnull align 8 dereferenceable(24) %3) #13
  ret ptr %4
}

; Function Attrs: mustprogress nounwind uwtable
define linkonce_odr noundef ptr @_ZNK17QArrayDataPointerI11QEventPointEptEv(ptr noundef nonnull align 8 dereferenceable(24) %0) #1 comdat align 2 {
  %2 = alloca ptr, align 8
  store ptr %0, ptr %2, align 8
  %3 = load ptr, ptr %2, align 8
  ret ptr %3
}

; Function Attrs: noreturn nounwind uwtable
define linkonce_odr hidden void @__clang_call_terminate(ptr noundef %0) #7 comdat {
  %2 = call ptr @__cxa_begin_catch(ptr %0) #13
  call void @_ZSt9terminatev() #20
  unreachable
}

; Function Attrs: mustprogress nounwind uwtable
define linkonce_odr noundef nonnull align 8 dereferenceable(8) ptr @_ZNK5QListI11QEventPointE14const_iteratordeEv(ptr noundef nonnull align 8 dereferenceable(8) %0) #1 comdat align 2 {
  %2 = alloca ptr, align 8
  store ptr %0, ptr %2, align 8
  %3 = load ptr, ptr %2, align 8
  %4 = getelementptr inbounds %"class.QList<QEventPoint>::const_iterator", ptr %3, i32 0, i32 0
  %5 = load ptr, ptr %4, align 8
  ret ptr %5
}

; Function Attrs: mustprogress nounwind uwtable
define linkonce_odr ptr @_ZNK5QListI11QEventPointE5beginEv(ptr noundef nonnull align 8 dereferenceable(24) %0) #1 comdat align 2 personality ptr @__gxx_personality_v0 {
  %2 = alloca %"class.QList<QEventPoint>::const_iterator", align 8
  %3 = alloca ptr, align 8
  store ptr %0, ptr %3, align 8
  %4 = load ptr, ptr %3, align 8
  %5 = getelementptr inbounds %class.QList, ptr %4, i32 0, i32 0
  %6 = call noundef ptr @_ZNK17QArrayDataPointerI11QEventPointEptEv(ptr noundef nonnull align 8 dereferenceable(24) %5) #13
  %7 = call noundef ptr @_ZNK17QArrayDataPointerI11QEventPointE10constBeginEv(ptr noundef nonnull align 8 dereferenceable(24) %6) #13
  invoke void @_ZN5QListI11QEventPointE14const_iteratorC2EPKS0_(ptr noundef nonnull align 8 dereferenceable(8) %2, ptr noundef %7)
          to label %8 unwind label %11

8:                                                ; preds = %1
  %9 = getelementptr inbounds %"class.QList<QEventPoint>::const_iterator", ptr %2, i32 0, i32 0
  %10 = load ptr, ptr %9, align 8
  ret ptr %10

11:                                               ; preds = %1
  %12 = landingpad { ptr, i32 }
          catch ptr null
  %13 = extractvalue { ptr, i32 } %12, 0
  call void @__clang_call_terminate(ptr %13) #20
  unreachable
}

; Function Attrs: mustprogress nounwind uwtable
define linkonce_odr noundef i32 @_ZNK5QRect5widthEv(ptr noundef nonnull align 4 dereferenceable(16) %0) #1 comdat align 2 {
  %2 = alloca ptr, align 8
  store ptr %0, ptr %2, align 8
  %3 = load ptr, ptr %2, align 8
  %4 = getelementptr inbounds %class.QRect, ptr %3, i32 0, i32 2
  %5 = load i32, ptr %4, align 4
  %6 = getelementptr inbounds %class.QRect, ptr %3, i32 0, i32 0
  %7 = load i32, ptr %6, align 4
  %8 = sub i32 %5, %7
  %9 = add i32 %8, 1
  ret i32 %9
}

; Function Attrs: mustprogress nounwind uwtable
define linkonce_odr noundef nonnull align 8 dereferenceable(8) ptr @_ZNK5QListI11QEventPointE5firstEv(ptr noundef nonnull align 8 dereferenceable(24) %0) #1 comdat align 2 personality ptr @__gxx_personality_v0 {
  %2 = alloca ptr, align 8
  %3 = alloca %"class.QList<QEventPoint>::const_iterator", align 8
  store ptr %0, ptr %2, align 8
  %4 = load ptr, ptr %2, align 8
  %5 = call ptr @_ZNK5QListI11QEventPointE5beginEv(ptr noundef nonnull align 8 dereferenceable(24) %4) #13
  %6 = getelementptr inbounds %"class.QList<QEventPoint>::const_iterator", ptr %3, i32 0, i32 0
  store ptr %5, ptr %6, align 8
  %7 = invoke noundef nonnull align 8 dereferenceable(8) ptr @_ZNK5QListI11QEventPointE14const_iteratordeEv(ptr noundef nonnull align 8 dereferenceable(8) %3)
          to label %8 unwind label %9

8:                                                ; preds = %1
  ret ptr %7

9:                                                ; preds = %1
  %10 = landingpad { ptr, i32 }
          catch ptr null
  %11 = extractvalue { ptr, i32 } %10, 0
  call void @__clang_call_terminate(ptr %11) #20
  unreachable
}

; Function Attrs: mustprogress nounwind uwtable
define linkonce_odr noundef zeroext i1 @_Zeq6QFlagsIN2Qt11MouseButtonEES2_(i32 %0, i32 %1) #1 comdat {
  %3 = alloca %class.QFlags.0, align 4
  %4 = alloca %class.QFlags.0, align 4
  %5 = getelementptr inbounds %class.QFlags.0, ptr %3, i32 0, i32 0
  store i32 %0, ptr %5, align 4
  %6 = getelementptr inbounds %class.QFlags.0, ptr %4, i32 0, i32 0
  store i32 %1, ptr %6, align 4
  %7 = getelementptr inbounds %class.QFlags.0, ptr %3, i32 0, i32 0
  %8 = load i32, ptr %7, align 4
  %9 = getelementptr inbounds %class.QFlags.0, ptr %4, i32 0, i32 0
  %10 = load i32, ptr %9, align 4
  %11 = icmp eq i32 %8, %10
  ret i1 %11
}

; Function Attrs: mustprogress nounwind uwtable
define linkonce_odr void @_ZN6QFlagsIN2Qt11MouseButtonEEC2ES1_(ptr noundef nonnull align 4 dereferenceable(4) %0, i32 noundef %1) unnamed_addr #1 comdat align 2 {
  %3 = alloca ptr, align 8
  %4 = alloca i32, align 4
  store ptr %0, ptr %3, align 8
  store i32 %1, ptr %4, align 4
  %5 = load ptr, ptr %3, align 8
  %6 = getelementptr inbounds %class.QFlags.0, ptr %5, i32 0, i32 0
  %7 = load i32, ptr %4, align 4
  store i32 %7, ptr %6, align 4
  ret void
}

; Function Attrs: mustprogress nounwind uwtable
define void @_ZN16WirelessTimeline8clip_tsfEv(ptr noundef nonnull align 8 dereferenceable(896) %0) #1 align 2 {
  %2 = alloca ptr, align 8
  %3 = alloca i64, align 8
  %4 = alloca i64, align 8
  store ptr %0, ptr %2, align 8
  %5 = load ptr, ptr %2, align 8
  %6 = getelementptr inbounds %class.WirelessTimeline, ptr %5, i32 0, i32 6
  %7 = load i64, ptr %6, align 8
  %8 = getelementptr inbounds %class.WirelessTimeline, ptr %5, i32 0, i32 9
  %9 = load ptr, ptr %8, align 8
  %10 = getelementptr inbounds %struct.wlan_radio, ptr %9, i32 0, i32 2
  %11 = load i64, ptr %10, align 8
  %12 = icmp slt i64 %7, %11
  br i1 %12, label %13, label %29

13:                                               ; preds = %1
  %14 = getelementptr inbounds %class.WirelessTimeline, ptr %5, i32 0, i32 9
  %15 = load ptr, ptr %14, align 8
  %16 = getelementptr inbounds %struct.wlan_radio, ptr %15, i32 0, i32 2
  %17 = load i64, ptr %16, align 8
  %18 = getelementptr inbounds %class.WirelessTimeline, ptr %5, i32 0, i32 6
  %19 = load i64, ptr %18, align 8
  %20 = sub i64 %17, %19
  store i64 %20, ptr %3, align 8
  %21 = load i64, ptr %3, align 8
  %22 = getelementptr inbounds %class.WirelessTimeline, ptr %5, i32 0, i32 6
  %23 = load i64, ptr %22, align 8
  %24 = add i64 %23, %21
  store i64 %24, ptr %22, align 8
  %25 = load i64, ptr %3, align 8
  %26 = getelementptr inbounds %class.WirelessTimeline, ptr %5, i32 0, i32 7
  %27 = load i64, ptr %26, align 8
  %28 = add i64 %27, %25
  store i64 %28, ptr %26, align 8
  br label %29

29:                                               ; preds = %13, %1
  %30 = getelementptr inbounds %class.WirelessTimeline, ptr %5, i32 0, i32 7
  %31 = load i64, ptr %30, align 8
  %32 = getelementptr inbounds %class.WirelessTimeline, ptr %5, i32 0, i32 10
  %33 = load ptr, ptr %32, align 8
  %34 = getelementptr inbounds %struct.wlan_radio, ptr %33, i32 0, i32 3
  %35 = load i64, ptr %34, align 8
  %36 = icmp ugt i64 %31, %35
  br i1 %36, label %37, label %53

37:                                               ; preds = %29
  %38 = getelementptr inbounds %class.WirelessTimeline, ptr %5, i32 0, i32 7
  %39 = load i64, ptr %38, align 8
  %40 = getelementptr inbounds %class.WirelessTimeline, ptr %5, i32 0, i32 10
  %41 = load ptr, ptr %40, align 8
  %42 = getelementptr inbounds %struct.wlan_radio, ptr %41, i32 0, i32 3
  %43 = load i64, ptr %42, align 8
  %44 = sub i64 %39, %43
  store i64 %44, ptr %4, align 8
  %45 = load i64, ptr %4, align 8
  %46 = getelementptr inbounds %class.WirelessTimeline, ptr %5, i32 0, i32 6
  %47 = load i64, ptr %46, align 8
  %48 = sub i64 %47, %45
  store i64 %48, ptr %46, align 8
  %49 = load i64, ptr %4, align 8
  %50 = getelementptr inbounds %class.WirelessTimeline, ptr %5, i32 0, i32 7
  %51 = load i64, ptr %50, align 8
  %52 = sub i64 %51, %49
  store i64 %52, ptr %50, align 8
  br label %53

53:                                               ; preds = %37, %29
  ret void
}

; Function Attrs: mustprogress nounwind uwtable
define linkonce_odr noundef i32 @_ZNK7QWidget5widthEv(ptr noundef nonnull align 8 dereferenceable(40) %0) #1 comdat align 2 {
  %2 = alloca ptr, align 8
  store ptr %0, ptr %2, align 8
  %3 = load ptr, ptr %2, align 8
  %4 = getelementptr inbounds %class.QWidget, ptr %3, i32 0, i32 2
  %5 = load ptr, ptr %4, align 8
  %6 = getelementptr inbounds %class.QWidgetData, ptr %5, i32 0, i32 4
  %7 = call noundef i32 @_ZNK5QRect5widthEv(ptr noundef nonnull align 4 dereferenceable(16) %6) #13
  ret i32 %7
}

; Function Attrs: mustprogress nounwind uwtable
define linkonce_odr noundef double @_ZNK7QPointF1xEv(ptr noundef nonnull align 8 dereferenceable(16) %0) #1 comdat align 2 {
  %2 = alloca ptr, align 8
  store ptr %0, ptr %2, align 8
  %3 = load ptr, ptr %2, align 8
  %4 = getelementptr inbounds %class.QPointF, ptr %3, i32 0, i32 0
  %5 = load double, ptr %4, align 8
  ret double %5
}

; Function Attrs: mustprogress uwtable
define linkonce_odr { double, double } @_ZNK17QSinglePointEvent8positionEv(ptr noundef nonnull align 8 dereferenceable(80) %0) #0 comdat align 2 {
  %2 = alloca %class.QPointF, align 8
  %3 = alloca ptr, align 8
  store ptr %0, ptr %3, align 8
  %4 = load ptr, ptr %3, align 8
  %5 = getelementptr inbounds %class.QPointerEvent, ptr %4, i32 0, i32 1
  %6 = call noundef nonnull align 8 dereferenceable(8) ptr @_ZNK5QListI11QEventPointE5firstEv(ptr noundef nonnull align 8 dereferenceable(24) %5) #13
  %7 = call { double, double } @_ZNK11QEventPoint8positionEv(ptr noundef nonnull align 8 dereferenceable(8) %6)
  %8 = getelementptr inbounds { double, double }, ptr %2, i32 0, i32 0
  %9 = extractvalue { double, double } %7, 0
  store double %9, ptr %8, align 8
  %10 = getelementptr inbounds { double, double }, ptr %2, i32 0, i32 1
  %11 = extractvalue { double, double } %7, 1
  store double %11, ptr %10, align 8
  %12 = load { double, double }, ptr %2, align 8
  ret { double, double } %12
}

; Function Attrs: mustprogress nounwind uwtable
define linkonce_odr noundef zeroext i1 @_Zeq6QFlagsIN2Qt11MouseButtonEES1_(i32 %0, i32 noundef %1) #1 comdat {
  %3 = alloca %class.QFlags.0, align 4
  %4 = alloca i32, align 4
  %5 = alloca %class.QFlags.0, align 4
  %6 = alloca %class.QFlags.0, align 4
  %7 = getelementptr inbounds %class.QFlags.0, ptr %3, i32 0, i32 0
  store i32 %0, ptr %7, align 4
  store i32 %1, ptr %4, align 4
  call void @llvm.memcpy.p0.p0.i64(ptr align 4 %5, ptr align 4 %3, i64 4, i1 false)
  %8 = load i32, ptr %4, align 4
  call void @_ZN6QFlagsIN2Qt11MouseButtonEEC2ES1_(ptr noundef nonnull align 4 dereferenceable(4) %6, i32 noundef %8) #13
  %9 = getelementptr inbounds %class.QFlags.0, ptr %5, i32 0, i32 0
  %10 = load i32, ptr %9, align 4
  %11 = getelementptr inbounds %class.QFlags.0, ptr %6, i32 0, i32 0
  %12 = load i32, ptr %11, align 4
  %13 = call noundef zeroext i1 @_Zeq6QFlagsIN2Qt11MouseButtonEES2_(i32 %10, i32 %12) #13
  ret i1 %13
}

; Function Attrs: mustprogress nounwind uwtable
define linkonce_odr i32 @_ZNK17QSinglePointEvent7buttonsEv(ptr noundef nonnull align 8 dereferenceable(80) %0) #1 comdat align 2 {
  %2 = alloca %class.QFlags.0, align 4
  %3 = alloca ptr, align 8
  store ptr %0, ptr %3, align 8
  %4 = load ptr, ptr %3, align 8
  %5 = getelementptr inbounds %class.QSinglePointEvent, ptr %4, i32 0, i32 2
  call void @llvm.memcpy.p0.p0.i64(ptr align 4 %2, ptr align 4 %5, i64 4, i1 false)
  %6 = getelementptr inbounds %class.QFlags.0, ptr %2, i32 0, i32 0
  %7 = load i32, ptr %6, align 4
  ret i32 %7
}

; Function Attrs: mustprogress uwtable
define void @_ZN16WirelessTimeline14mouseMoveEventEP11QMouseEvent(ptr noundef nonnull align 8 dereferenceable(896) %0, ptr noundef %1) unnamed_addr #0 align 2 {
  %3 = alloca ptr, align 8
  %4 = alloca ptr, align 8
  %5 = alloca %class.QFlags.0, align 4
  %6 = alloca double, align 8
  %7 = alloca %class.QPointF, align 8
  %8 = alloca %class.QPointF, align 8
  %9 = alloca double, align 8
  store ptr %0, ptr %3, align 8
  store ptr %1, ptr %4, align 8
  %10 = load ptr, ptr %3, align 8
  %11 = load ptr, ptr %4, align 8
  %12 = call i32 @_ZNK17QSinglePointEvent7buttonsEv(ptr noundef nonnull align 8 dereferenceable(80) %11)
  %13 = getelementptr inbounds %class.QFlags.0, ptr %5, i32 0, i32 0
  store i32 %12, ptr %13, align 4
  %14 = getelementptr inbounds %class.QFlags.0, ptr %5, i32 0, i32 0
  %15 = load i32, ptr %14, align 4
  %16 = call noundef zeroext i1 @_Zeq6QFlagsIN2Qt11MouseButtonEES1_(i32 %15, i32 noundef 0) #13
  br i1 %16, label %17, label %18

17:                                               ; preds = %2
  br label %60

18:                                               ; preds = %2
  %19 = load ptr, ptr %4, align 8
  %20 = call { double, double } @_ZNK17QSinglePointEvent8positionEv(ptr noundef nonnull align 8 dereferenceable(80) %19)
  %21 = getelementptr inbounds { double, double }, ptr %7, i32 0, i32 0
  %22 = extractvalue { double, double } %20, 0
  store double %22, ptr %21, align 8
  %23 = getelementptr inbounds { double, double }, ptr %7, i32 0, i32 1
  %24 = extractvalue { double, double } %20, 1
  store double %24, ptr %23, align 8
  %25 = call noundef double @_ZNK7QPointF1xEv(ptr noundef nonnull align 8 dereferenceable(16) %7) #13
  %26 = getelementptr inbounds %class.WirelessTimeline, ptr %10, i32 0, i32 3
  %27 = load double, ptr %26, align 8
  %28 = fsub double %25, %27
  store double %28, ptr %6, align 8
  %29 = load ptr, ptr %4, align 8
  %30 = call { double, double } @_ZNK17QSinglePointEvent8positionEv(ptr noundef nonnull align 8 dereferenceable(80) %29)
  %31 = getelementptr inbounds { double, double }, ptr %8, i32 0, i32 0
  %32 = extractvalue { double, double } %30, 0
  store double %32, ptr %31, align 8
  %33 = getelementptr inbounds { double, double }, ptr %8, i32 0, i32 1
  %34 = extractvalue { double, double } %30, 1
  store double %34, ptr %33, align 8
  %35 = call noundef double @_ZNK7QPointF1xEv(ptr noundef nonnull align 8 dereferenceable(16) %8) #13
  %36 = getelementptr inbounds %class.WirelessTimeline, ptr %10, i32 0, i32 3
  store double %35, ptr %36, align 8
  %37 = getelementptr inbounds %class.WirelessTimeline, ptr %10, i32 0, i32 7
  %38 = load i64, ptr %37, align 8
  %39 = getelementptr inbounds %class.WirelessTimeline, ptr %10, i32 0, i32 6
  %40 = load i64, ptr %39, align 8
  %41 = sub i64 %38, %40
  %42 = uitofp i64 %41 to double
  %43 = call noundef i32 @_ZNK7QWidget5widthEv(ptr noundef nonnull align 8 dereferenceable(40) %10)
  %44 = sitofp i32 %43 to double
  %45 = fdiv double %42, %44
  %46 = load double, ptr %6, align 8
  %47 = fmul double %45, %46
  store double %47, ptr %9, align 8
  %48 = load double, ptr %9, align 8
  %49 = getelementptr inbounds %class.WirelessTimeline, ptr %10, i32 0, i32 6
  %50 = load i64, ptr %49, align 8
  %51 = uitofp i64 %50 to double
  %52 = fsub double %51, %48
  %53 = fptoui double %52 to i64
  store i64 %53, ptr %49, align 8
  %54 = load double, ptr %9, align 8
  %55 = getelementptr inbounds %class.WirelessTimeline, ptr %10, i32 0, i32 7
  %56 = load i64, ptr %55, align 8
  %57 = uitofp i64 %56 to double
  %58 = fsub double %57, %54
  %59 = fptoui double %58 to i64
  store i64 %59, ptr %55, align 8
  call void @_ZN16WirelessTimeline8clip_tsfEv(ptr noundef nonnull align 8 dereferenceable(896) %10)
  call void @_ZN7QWidget6updateEv(ptr noundef nonnull align 8 dereferenceable(40) %10)
  br label %60

60:                                               ; preds = %18, %17
  ret void
}