; Function Attrs: mustprogress uwtable
define void @_ZN16WirelessTimeline14mouseMoveEventEP11QMouseEvent(ptr noundef nonnull align 8 dereferenceable(896) %0, ptr nocapture noundef readonly %1) unnamed_addr #0 align 2 personality ptr @__gxx_personality_v0 {
  %3 = getelementptr inbounds i8, ptr %1, i64 68
  %.sroa.0.0.copyload.i = load i32, ptr %3, align 4
  %4 = icmp eq i32 %.sroa.0.0.copyload.i, 0
  br i1 %4, label %56, label %5

5:                                                ; preds = %2
  %6 = getelementptr inbounds i8, ptr %1, i64 48
  %7 = load ptr, ptr %6, align 8
  %8 = tail call { double, double } @_ZNK11QEventPoint8positionEv(ptr noundef nonnull align 8 dereferenceable(8) %7)
  %9 = extractvalue { double, double } %8, 0
  %10 = getelementptr inbounds i8, ptr %0, i64 56
  %11 = load double, ptr %10, align 8
  %12 = fsub double %9, %11
  %13 = load ptr, ptr %6, align 8
  %14 = tail call { double, double } @_ZNK11QEventPoint8positionEv(ptr noundef nonnull align 8 dereferenceable(8) %13)
  %15 = extractvalue { double, double } %14, 0
  store double %15, ptr %10, align 8
  %16 = getelementptr inbounds i8, ptr %0, i64 848
  %17 = load i64, ptr %16, align 8
  %18 = getelementptr inbounds i8, ptr %0, i64 840
  %19 = load i64, ptr %18, align 8
  %20 = sub i64 %17, %19
  %21 = uitofp i64 %20 to double
  %22 = getelementptr inbounds i8, ptr %0, i64 32
  %23 = load ptr, ptr %22, align 8
  %24 = getelementptr inbounds i8, ptr %23, i64 20
  %25 = getelementptr inbounds i8, ptr %23, i64 28
  %26 = load i32, ptr %25, align 4
  %27 = load i32, ptr %24, align 4
  %28 = add i32 %26, 1
  %29 = sub i32 %28, %27
  %30 = sitofp i32 %29 to double
  %31 = fdiv double %21, %30
  %32 = fmul double %12, %31
  %33 = uitofp i64 %19 to double
  %34 = fsub double %33, %32
  %35 = fptoui double %34 to i64
  store i64 %35, ptr %18, align 8
  %36 = uitofp i64 %17 to double
  %37 = fsub double %36, %32
  %38 = fptoui double %37 to i64
  store i64 %38, ptr %16, align 8
  %39 = getelementptr inbounds i8, ptr %0, i64 864
  %40 = load ptr, ptr %39, align 8
  %41 = getelementptr inbounds i8, ptr %40, i64 16
  %42 = load i64, ptr %41, align 8
  %43 = icmp sgt i64 %42, %35
  br i1 %43, label %44, label %._crit_edge.i

44:                                               ; preds = %5
  %45 = sub i64 %42, %35
  store i64 %42, ptr %18, align 8
  %46 = add i64 %45, %38
  store i64 %46, ptr %16, align 8
  br label %._crit_edge.i

._crit_edge.i:                                    ; preds = %5, %44
  %47 = phi i64 [ %42, %44 ], [ %35, %5 ]
  %48 = phi i64 [ %46, %44 ], [ %38, %5 ]
  %49 = getelementptr inbounds i8, ptr %0, i64 872
  %50 = load ptr, ptr %49, align 8
  %51 = getelementptr inbounds i8, ptr %50, i64 24
  %52 = load i64, ptr %51, align 8
  %53 = icmp ugt i64 %48, %52
  br i1 %53, label %54, label %_ZN16WirelessTimeline8clip_tsfEv.exit

54:                                               ; preds = %._crit_edge.i
  %.neg.i = sub i64 %47, %48
  %55 = add i64 %.neg.i, %52
  store i64 %55, ptr %18, align 8
  store i64 %52, ptr %16, align 8
  br label %_ZN16WirelessTimeline8clip_tsfEv.exit

_ZN16WirelessTimeline8clip_tsfEv.exit:            ; preds = %._crit_edge.i, %54
  tail call void @_ZN7QWidget6updateEv(ptr noundef nonnull align 8 dereferenceable(40) %0)
  br label %56

56:                                               ; preds = %2, %_ZN16WirelessTimeline8clip_tsfEv.exit
  ret void
}